target datalayout = "e-m:e-p270:32:32-p271:32:32-p272:64:64-i64:64-i128:128-f80:128-n8:16:32:64-S128"
target triple = "x86_64-pc-linux-gnu"

%struct.AVRational = type { i32, i32 }
%struct.AVFilterContext = type { ptr, ptr, ptr, ptr, ptr, i32, ptr, ptr, i32, ptr, ptr, i32, i32, ptr, ptr, ptr, ptr, i32, ptr, i32, i32 }
%struct.PseudoColorContext = type { ptr, i32, float, i32, i32, i32, i32, [4 x i32], [4 x i32], [4 x i32], [11 x double], [4 x ptr], [4 x ptr], [4 x [65536 x float]], [4 x ptr] }
%struct.ThreadData = type { ptr, ptr }
%struct.AVChannelLayout = type { i32, i32, %union.anon.1, ptr }
%union.anon.1 = type { i64 }
%struct.AVFrame = type { [8 x ptr], [8 x i32], ptr, i32, i32, i32, i32, i32, %struct.AVRational, i64, i64, %struct.AVRational, i32, ptr, i32, i32, [8 x ptr], ptr, i32, ptr, i32, i32, i32, i32, i32, i32, i32, i64, ptr, i32, ptr, ptr, i64, i64, i64, i64, ptr, %struct.AVChannelLayout, i64 }

; Function Attrs: nounwind uwtable
define internal i32 @filter_slice(ptr noundef %0, ptr noundef %1, i32 noundef %2, i32 noundef %3) #1 {
  %5 = alloca ptr, align 8
  %6 = alloca ptr, align 8
  %7 = alloca i32, align 4
  %8 = alloca i32, align 4
  %9 = alloca ptr, align 8
  %10 = alloca ptr, align 8
  %11 = alloca ptr, align 8
  %12 = alloca ptr, align 8
  %13 = alloca i32, align 4
  %14 = alloca i32, align 4
  %15 = alloca i32, align 4
  %16 = alloca i32, align 4
  %17 = alloca i64, align 8
  %18 = alloca i64, align 8
  %19 = alloca i64, align 8
  %20 = alloca ptr, align 8
  %21 = alloca ptr, align 8
  %22 = alloca ptr, align 8
  store ptr %0, ptr %5, align 8, !tbaa !4
  store ptr %1, ptr %6, align 8, !tbaa !84
  store i32 %2, ptr %7, align 4, !tbaa !24
  store i32 %3, ptr %8, align 4, !tbaa !24
  call void @llvm.lifetime.start.p0(i64 8, ptr %9) #11
  %23 = load ptr, ptr %5, align 8, !tbaa !4
  %24 = getelementptr inbounds nuw %struct.AVFilterContext, ptr %23, i32 0, i32 9
  %25 = load ptr, ptr %24, align 8, !tbaa !9
  store ptr %25, ptr %9, align 8, !tbaa !22
  call void @llvm.lifetime.start.p0(i64 8, ptr %10) #11
  %26 = load ptr, ptr %6, align 8, !tbaa !84
  store ptr %26, ptr %10, align 8, !tbaa !89
  call void @llvm.lifetime.start.p0(i64 8, ptr %11) #11
  %27 = load ptr, ptr %10, align 8, !tbaa !89
  %28 = getelementptr inbounds nuw %struct.ThreadData, ptr %27, i32 0, i32 0
  %29 = load ptr, ptr %28, align 8, !tbaa !48
  store ptr %29, ptr %11, align 8, !tbaa !33
  call void @llvm.lifetime.start.p0(i64 8, ptr %12) #11
  %30 = load ptr, ptr %10, align 8, !tbaa !89
  %31 = getelementptr inbounds nuw %struct.ThreadData, ptr %30, i32 0, i32 1
  %32 = load ptr, ptr %31, align 8, !tbaa !46
  store ptr %32, ptr %12, align 8, !tbaa !33
  call void @llvm.lifetime.start.p0(i64 4, ptr %13) #11
  store i32 0, ptr %13, align 4, !tbaa !24
  br label %33

33:                                               ; preds = %165, %4
  %34 = load i32, ptr %13, align 4, !tbaa !24
  %35 = load ptr, ptr %9, align 8, !tbaa !22
  %36 = getelementptr inbounds nuw %struct.PseudoColorContext, ptr %35, i32 0, i32 5
  %37 = load i32, ptr %36, align 8, !tbaa !60
  %38 = icmp slt i32 %34, %37
  br i1 %38, label %40, label %39

39:                                               ; preds = %33
  call void @llvm.lifetime.end.p0(i64 4, ptr %13) #11
  br label %168

40:                                               ; preds = %33
  call void @llvm.lifetime.start.p0(i64 4, ptr %14) #11
  %41 = load ptr, ptr %9, align 8, !tbaa !22
  %42 = getelementptr inbounds nuw %struct.PseudoColorContext, ptr %41, i32 0, i32 9
  %43 = load i32, ptr %13, align 4, !tbaa !24
  %44 = sext i32 %43 to i64
  %45 = getelementptr inbounds [4 x i32], ptr %42, i64 0, i64 %44
  %46 = load i32, ptr %45, align 4, !tbaa !24
  %47 = load i32, ptr %7, align 4, !tbaa !24
  %48 = mul nsw i32 %46, %47
  %49 = load i32, ptr %8, align 4, !tbaa !24
  %50 = sdiv i32 %48, %49
  store i32 %50, ptr %14, align 4, !tbaa !24
  call void @llvm.lifetime.start.p0(i64 4, ptr %15) #11
  %51 = load ptr, ptr %9, align 8, !tbaa !22
  %52 = getelementptr inbounds nuw %struct.PseudoColorContext, ptr %51, i32 0, i32 9
  %53 = load i32, ptr %13, align 4, !tbaa !24
  %54 = sext i32 %53 to i64
  %55 = getelementptr inbounds [4 x i32], ptr %52, i64 0, i64 %54
  %56 = load i32, ptr %55, align 4, !tbaa !24
  %57 = load i32, ptr %7, align 4, !tbaa !24
  %58 = add nsw i32 %57, 1
  %59 = mul nsw i32 %56, %58
  %60 = load i32, ptr %8, align 4, !tbaa !24
  %61 = sdiv i32 %59, %60
  store i32 %61, ptr %15, align 4, !tbaa !24
  call void @llvm.lifetime.start.p0(i64 4, ptr %16) #11
  %62 = load ptr, ptr %9, align 8, !tbaa !22
  %63 = getelementptr inbounds nuw %struct.PseudoColorContext, ptr %62, i32 0, i32 9
  %64 = load ptr, ptr %9, align 8, !tbaa !22
  %65 = getelementptr inbounds nuw %struct.PseudoColorContext, ptr %64, i32 0, i32 4
  %66 = load i32, ptr %65, align 4, !tbaa !61
  %67 = sext i32 %66 to i64
  %68 = getelementptr inbounds [4 x i32], ptr %63, i64 0, i64 %67
  %69 = load i32, ptr %68, align 4, !tbaa !24
  %70 = load i32, ptr %7, align 4, !tbaa !24
  %71 = mul nsw i32 %69, %70
  %72 = load i32, ptr %8, align 4, !tbaa !24
  %73 = sdiv i32 %71, %72
  store i32 %73, ptr %16, align 4, !tbaa !24
  call void @llvm.lifetime.start.p0(i64 8, ptr %17) #11
  %74 = load ptr, ptr %11, align 8, !tbaa !33
  %75 = getelementptr inbounds nuw %struct.AVFrame, ptr %74, i32 0, i32 1
  %76 = load ptr, ptr %9, align 8, !tbaa !22
  %77 = getelementptr inbounds nuw %struct.PseudoColorContext, ptr %76, i32 0, i32 4
  %78 = load i32, ptr %77, align 4, !tbaa !61
  %79 = sext i32 %78 to i64
  %80 = getelementptr inbounds [8 x i32], ptr %75, i64 0, i64 %79
  %81 = load i32, ptr %80, align 4, !tbaa !24
  %82 = sext i32 %81 to i64
  store i64 %82, ptr %17, align 8, !tbaa !91
  call void @llvm.lifetime.start.p0(i64 8, ptr %18) #11
  %83 = load ptr, ptr %11, align 8, !tbaa !33
  %84 = getelementptr inbounds nuw %struct.AVFrame, ptr %83, i32 0, i32 1
  %85 = load i32, ptr %13, align 4, !tbaa !24
  %86 = sext i32 %85 to i64
  %87 = getelementptr inbounds [8 x i32], ptr %84, i64 0, i64 %86
  %88 = load i32, ptr %87, align 4, !tbaa !24
  %89 = sext i32 %88 to i64
  store i64 %89, ptr %18, align 8, !tbaa !91
  call void @llvm.lifetime.start.p0(i64 8, ptr %19) #11
  %90 = load ptr, ptr %12, align 8, !tbaa !33
  %91 = getelementptr inbounds nuw %struct.AVFrame, ptr %90, i32 0, i32 1
  %92 = load i32, ptr %13, align 4, !tbaa !24
  %93 = sext i32 %92 to i64
  %94 = getelementptr inbounds [8 x i32], ptr %91, i64 0, i64 %93
  %95 = load i32, ptr %94, align 4, !tbaa !24
  %96 = sext i32 %95 to i64
  store i64 %96, ptr %19, align 8, !tbaa !91
  call void @llvm.lifetime.start.p0(i64 8, ptr %20) #11
  %97 = load ptr, ptr %11, align 8, !tbaa !33
  %98 = getelementptr inbounds nuw %struct.AVFrame, ptr %97, i32 0, i32 0
  %99 = load ptr, ptr %9, align 8, !tbaa !22
  %100 = getelementptr inbounds nuw %struct.PseudoColorContext, ptr %99, i32 0, i32 4
  %101 = load i32, ptr %100, align 4, !tbaa !61
  %102 = sext i32 %101 to i64
  %103 = getelementptr inbounds [8 x ptr], ptr %98, i64 0, i64 %102
  %104 = load ptr, ptr %103, align 8, !tbaa !29
  %105 = load i32, ptr %16, align 4, !tbaa !24
  %106 = sext i32 %105 to i64
  %107 = load i64, ptr %17, align 8, !tbaa !91
  %108 = mul nsw i64 %106, %107
  %109 = getelementptr inbounds i8, ptr %104, i64 %108
  store ptr %109, ptr %20, align 8, !tbaa !29
  call void @llvm.lifetime.start.p0(i64 8, ptr %21) #11
  %110 = load ptr, ptr %11, align 8, !tbaa !33
  %111 = getelementptr inbounds nuw %struct.AVFrame, ptr %110, i32 0, i32 0
  %112 = load i32, ptr %13, align 4, !tbaa !24
  %113 = sext i32 %112 to i64
  %114 = getelementptr inbounds [8 x ptr], ptr %111, i64 0, i64 %113
  %115 = load ptr, ptr %114, align 8, !tbaa !29
  %116 = load i32, ptr %14, align 4, !tbaa !24
  %117 = sext i32 %116 to i64
  %118 = load i64, ptr %18, align 8, !tbaa !91
  %119 = mul nsw i64 %117, %118
  %120 = getelementptr inbounds i8, ptr %115, i64 %119
  store ptr %120, ptr %21, align 8, !tbaa !29
  call void @llvm.lifetime.start.p0(i64 8, ptr %22) #11
  %121 = load ptr, ptr %12, align 8, !tbaa !33
  %122 = getelementptr inbounds nuw %struct.AVFrame, ptr %121, i32 0, i32 0
  %123 = load i32, ptr %13, align 4, !tbaa !24
  %124 = sext i32 %123 to i64
  %125 = getelementptr inbounds [8 x ptr], ptr %122, i64 0, i64 %124
  %126 = load ptr, ptr %125, align 8, !tbaa !29
  %127 = load i32, ptr %14, align 4, !tbaa !24
  %128 = sext i32 %127 to i64
  %129 = load i64, ptr %19, align 8, !tbaa !91
  %130 = mul nsw i64 %128, %129
  %131 = getelementptr inbounds i8, ptr %126, i64 %130
  store ptr %131, ptr %22, align 8, !tbaa !29
  %132 = load ptr, ptr %9, align 8, !tbaa !22
  %133 = getelementptr inbounds nuw %struct.PseudoColorContext, ptr %132, i32 0, i32 14
  %134 = load i32, ptr %13, align 4, !tbaa !24
  %135 = sext i32 %134 to i64
  %136 = getelementptr inbounds [4 x ptr], ptr %133, i64 0, i64 %135
  %137 = load ptr, ptr %136, align 8, !tbaa !84
  %138 = load ptr, ptr %9, align 8, !tbaa !22
  %139 = getelementptr inbounds nuw %struct.PseudoColorContext, ptr %138, i32 0, i32 3
  %140 = load i32, ptr %139, align 8, !tbaa !57
  %141 = load ptr, ptr %9, align 8, !tbaa !22
  %142 = getelementptr inbounds nuw %struct.PseudoColorContext, ptr %141, i32 0, i32 8
  %143 = load i32, ptr %13, align 4, !tbaa !24
  %144 = sext i32 %143 to i64
  %145 = getelementptr inbounds [4 x i32], ptr %142, i64 0, i64 %144
  %146 = load i32, ptr %145, align 4, !tbaa !24
  %147 = load i32, ptr %15, align 4, !tbaa !24
  %148 = load i32, ptr %14, align 4, !tbaa !24
  %149 = sub nsw i32 %147, %148
  %150 = load ptr, ptr %20, align 8, !tbaa !29
  %151 = load ptr, ptr %21, align 8, !tbaa !29
  %152 = load ptr, ptr %22, align 8, !tbaa !29
  %153 = load i64, ptr %17, align 8, !tbaa !91
  %154 = load i64, ptr %18, align 8, !tbaa !91
  %155 = load i64, ptr %19, align 8, !tbaa !91
  %156 = load ptr, ptr %9, align 8, !tbaa !22
  %157 = getelementptr inbounds nuw %struct.PseudoColorContext, ptr %156, i32 0, i32 13
  %158 = load i32, ptr %13, align 4, !tbaa !24
  %159 = sext i32 %158 to i64
  %160 = getelementptr inbounds [4 x [65536 x float]], ptr %157, i64 0, i64 %159
  %161 = getelementptr inbounds [65536 x float], ptr %160, i64 0, i64 0
  %162 = load ptr, ptr %9, align 8, !tbaa !22
  %163 = getelementptr inbounds nuw %struct.PseudoColorContext, ptr %162, i32 0, i32 2
  %164 = load float, ptr %163, align 4, !tbaa !92
  call void %137(i32 noundef %140, i32 noundef %146, i32 noundef %149, ptr noundef %150, ptr noundef %151, ptr noundef %152, i64 noundef %153, i64 noundef %154, i64 noundef %155, ptr noundef %161, float noundef %164)
  call void @llvm.lifetime.end.p0(i64 8, ptr %22) #11
  call void @llvm.lifetime.end.p0(i64 8, ptr %21) #11
  call void @llvm.lifetime.end.p0(i64 8, ptr %20) #11
  call void @llvm.lifetime.end.p0(i64 8, ptr %19) #11
  call void @llvm.lifetime.end.p0(i64 8, ptr %18) #11
  call void @llvm.lifetime.end.p0(i64 8, ptr %17) #11
  call void @llvm.lifetime.end.p0(i64 4, ptr %16) #11
  call void @llvm.lifetime.end.p0(i64 4, ptr %15) #11
  call void @llvm.lifetime.end.p0(i64 4, ptr %14) #11
  br label %165

165:                                              ; preds = %40
  %166 = load i32, ptr %13, align 4, !tbaa !24
  %167 = add nsw i32 %166, 1
  store i32 %167, ptr %13, align 4, !tbaa !24
  br label %33, !llvm.loop !93

168:                                              ; preds = %39
  call void @llvm.lifetime.end.p0(i64 8, ptr %12) #11
  call void @llvm.lifetime.end.p0(i64 8, ptr %11) #11
  call void @llvm.lifetime.end.p0(i64 8, ptr %10) #11
  call void @llvm.lifetime.end.p0(i64 8, ptr %9) #11
  ret i32 0
}