; Function Attrs: nounwind uwtable
define internal noundef i32 @filter_slice(ptr noundef readonly captures(none) %0, ptr noundef readonly captures(none) %1, i32 noundef %2, i32 noundef %3) #1 {
  %5 = getelementptr inbounds nuw i8, ptr %0, i64 72
  %6 = load ptr, ptr %5, align 8, !tbaa !4
  %7 = load ptr, ptr %1, align 8, !tbaa !43
  %8 = getelementptr inbounds nuw i8, ptr %1, i64 8
  %9 = load ptr, ptr %8, align 8, !tbaa !41
  %10 = getelementptr inbounds nuw i8, ptr %6, i64 24
  %11 = load i32, ptr %10, align 8, !tbaa !54
  %12 = icmp sgt i32 %11, 0
  br i1 %12, label %.lr.ph, label %._crit_edge

.lr.ph:                                           ; preds = %4
  %13 = getelementptr inbounds nuw i8, ptr %6, i64 64
  %14 = add nsw i32 %2, 1
  %15 = getelementptr inbounds nuw i8, ptr %6, i64 20
  %16 = getelementptr inbounds nuw i8, ptr %7, i64 64
  %17 = getelementptr inbounds nuw i8, ptr %9, i64 64
  %18 = getelementptr inbounds nuw i8, ptr %6, i64 1048808
  %19 = getelementptr inbounds nuw i8, ptr %6, i64 16
  %20 = getelementptr inbounds nuw i8, ptr %6, i64 48
  %21 = getelementptr inbounds nuw i8, ptr %6, i64 232
  %22 = getelementptr inbounds nuw i8, ptr %6, i64 12
  br label %23

._crit_edge:                                      ; preds = %23, %4
  ret i32 0

23:                                               ; preds = %.lr.ph, %23
  %indvars.iv = phi i64 [ 0, %.lr.ph ], [ %indvars.iv.next, %23 ]
  %24 = getelementptr inbounds nuw [4 x i32], ptr %13, i64 0, i64 %indvars.iv
  %25 = load i32, ptr %24, align 4, !tbaa !44
  %26 = mul nsw i32 %25, %2
  %27 = sdiv i32 %26, %3
  %28 = mul nsw i32 %25, %14
  %29 = sdiv i32 %28, %3
  %30 = load i32, ptr %15, align 4, !tbaa !55
  %31 = sext i32 %30 to i64
  %32 = getelementptr inbounds [4 x i32], ptr %13, i64 0, i64 %31
  %33 = load i32, ptr %32, align 4, !tbaa !44
  %34 = mul nsw i32 %33, %2
  %35 = sdiv i32 %34, %3
  %36 = getelementptr inbounds [8 x i32], ptr %16, i64 0, i64 %31
  %37 = load i32, ptr %36, align 4, !tbaa !44
  %38 = sext i32 %37 to i64
  %39 = getelementptr inbounds nuw [8 x i32], ptr %16, i64 0, i64 %indvars.iv
  %40 = load i32, ptr %39, align 4, !tbaa !44
  %41 = sext i32 %40 to i64
  %42 = getelementptr inbounds nuw [8 x i32], ptr %17, i64 0, i64 %indvars.iv
  %43 = load i32, ptr %42, align 4, !tbaa !44
  %44 = sext i32 %43 to i64
  %45 = getelementptr inbounds [8 x ptr], ptr %7, i64 0, i64 %31
  %46 = load ptr, ptr %45, align 8, !tbaa !61
  %47 = sext i32 %35 to i64
  %48 = mul nsw i64 %38, %47
  %49 = getelementptr inbounds i8, ptr %46, i64 %48
  %50 = getelementptr inbounds nuw [8 x ptr], ptr %7, i64 0, i64 %indvars.iv
  %51 = load ptr, ptr %50, align 8, !tbaa !61
  %52 = sext i32 %27 to i64
  %53 = mul nsw i64 %41, %52
  %54 = getelementptr inbounds i8, ptr %51, i64 %53
  %55 = getelementptr inbounds nuw [8 x ptr], ptr %9, i64 0, i64 %indvars.iv
  %56 = load ptr, ptr %55, align 8, !tbaa !61
  %57 = mul nsw i64 %44, %52
  %58 = getelementptr inbounds i8, ptr %56, i64 %57
  %59 = getelementptr inbounds nuw [4 x ptr], ptr %18, i64 0, i64 %indvars.iv
  %60 = load ptr, ptr %59, align 8, !tbaa !76
  %61 = load i32, ptr %19, align 8, !tbaa !51
  %62 = getelementptr inbounds nuw [4 x i32], ptr %20, i64 0, i64 %indvars.iv
  %63 = load i32, ptr %62, align 4, !tbaa !44
  %64 = sub nsw i32 %29, %27
  %65 = getelementptr inbounds nuw [4 x [65536 x float]], ptr %21, i64 0, i64 %indvars.iv
  %66 = load float, ptr %22, align 4, !tbaa !81
  tail call void %60(i32 noundef %61, i32 noundef %63, i32 noundef %64, ptr noundef %49, ptr noundef %54, ptr noundef %58, i64 noundef %38, i64 noundef %41, i64 noundef %44, ptr noundef nonnull %65, float noundef %66) #11
  %indvars.iv.next = add nuw nsw i64 %indvars.iv, 1
  %67 = load i32, ptr %10, align 8, !tbaa !54
  %68 = sext i32 %67 to i64
  %69 = icmp slt i64 %indvars.iv.next, %68
  br i1 %69, label %23, label %._crit_edge, !llvm.loop !82
}